target datalayout = "e-m:e-p270:32:32-p271:32:32-p272:64:64-i64:64-i128:128-f80:128-n8:16:32:64-S128"
target triple = "x86_64-pc-linux-gnu"

%struct.ImVec2 = type { float, float }
%struct.ImGuiStyle = type { float, float, %struct.ImVec2, float, float, float, %struct.ImVec2, %struct.ImVec2, i32, float, float, float, float, %struct.ImVec2, float, float, %struct.ImVec2, %struct.ImVec2, %struct.ImVec2, %struct.ImVec2, float, float, float, float, float, float, float, float, float, float, float, float, float, float, %struct.ImVec2, i32, %struct.ImVec2, %struct.ImVec2, float, %struct.ImVec2, %struct.ImVec2, %struct.ImVec2, %struct.ImVec2, float, i8, i8, i8, float, float, [56 x %struct.ImVec4], float, float, float, i32, i32 }
%struct.ImVec4 = type { float, float, float, float }
%struct.ImGuiIO = type { i32, i32, %struct.ImVec2, float, float, ptr, ptr, ptr, ptr, float, i8, ptr, %struct.ImVec2, i8, i8, i8, i8, i8, i8, i8, i8, i8, i8, i8, i8, i8, i8, i8, i8, i8, float, float, float, float, float, float, i8, i8, i8, i8, i8, i8, i8, i8, i8, i8, ptr, ptr, ptr, ptr, ptr, i8, i8, i8, i8, i8, i8, i8, float, i32, i32, i32, i32, %struct.ImVec2, ptr, %struct.ImVec2, [5 x i8], float, float, i32, i8, i8, i8, i8, i32, [154 x %struct.ImGuiKeyData], i8, %struct.ImVec2, [5 x %struct.ImVec2], [5 x double], [5 x i8], [5 x i8], [5 x i16], [5 x i16], [5 x i8], [5 x double], [5 x i8], [5 x i8], i8, i8, [5 x float], [5 x float], [5 x float], float, i8, i8, i16, %struct.ImVector, ptr, ptr, ptr }
%struct.ImGuiKeyData = type { i8, float, float, float }
%struct.ImVector = type { i32, i32, ptr }
%struct.ImGuiContext = type { i8, i8, %struct.ImGuiIO, %struct.ImGuiPlatformIO, %struct.ImGuiStyle, ptr, float, float, float, float, %struct.ImDrawListSharedData, double, i32, i32, i32, i32, i8, i8, i8, i8, ptr, [16 x i8], %struct.ImVector.1, %struct.ImVector.1, i32, i32, %struct.ImVector.2, %struct.ImVector.2, %struct.ImVector.2, %struct.ImVector.3, %struct.ImGuiStorage, i32, float, i32, ptr, ptr, ptr, ptr, ptr, ptr, %struct.ImVec2, i32, i32, float, %struct.ImVec2, %struct.ImVec2, i32, i32, i32, i32, i32, float, float, i8, i8, i8, i32, i32, float, i8, i8, i8, i8, i8, i8, i8, i8, %struct.ImVec2, ptr, i32, i32, %struct.ImGuiDeactivatedItemData, %struct.ImGuiDataTypeStorage, i32, float, double, double, double, %struct.ImBitArray, [154 x %struct.ImGuiKeyOwnerData], %struct.ImGuiKeyRoutingTable, i32, i8, i32, i32, i32, i32, %struct.ImGuiNextItemData, %struct.ImGuiLastItemData, %struct.ImGuiNextWindowData, i8, i32, %struct.ImVector.6, %struct.ImVector.7, %struct.ImVector.8, %struct.ImVector.9, %struct.ImVector.10, %struct.ImVector.11, %struct.ImVector.12, %struct.ImVector.12, %struct.ImVector.13, %struct.ImVector.14, i8, i8, i8, i8, i32, ptr, i32, i32, i32, i32, i32, i32, %struct.ImVector.9, i32, float, i32, i32, i32, i64, i8, i8, i8, i8, %struct.ImGuiNavItemData, i8, i8, i8, i32, i32, i32, i32, i32, i32, %struct.ImRect, %struct.ImRect, i32, i32, i32, %struct.ImGuiNavItemData, %struct.ImGuiNavItemData, %struct.ImGuiNavItemData, %struct.ImGuiNavItemData, i32, i32, i32, i32, i8, i8, i32, i32, ptr, ptr, ptr, float, float, i8, i32, %struct.ImVec2, %struct.ImVec2, float, i8, i8, i8, i32, i32, i32, [4 x i8], %struct.ImGuiPayload, %struct.ImRect, %struct.ImRect, i32, i32, float, i32, i32, i32, i32, %struct.ImVector.15, [16 x i8], i32, %struct.ImVector.16, ptr, i32, i32, %struct.ImVector.17, %struct.ImPool, %struct.ImVector.19, %struct.ImVector.20, ptr, %struct.ImPool.21, %struct.ImVector.23, %struct.ImVector.24, %struct.ImGuiBoxSelectState, ptr, i32, %struct.ImVector.25, %struct.ImPool.26, i32, i32, float, float, i32, i32, i32, float, %struct.ImVec2, %struct.ImGuiInputTextState, %struct.ImGuiInputTextDeactivatedState, %struct.ImFont, i32, %struct.ImGuiDataTypeStorage, i32, i32, i32, i32, i32, float, float, i32, %struct.ImVec4, %struct.ImGuiComboPreviewData, %struct.ImRect, i8, i16, float, float, float, i8, i8, float, float, float, i16, i16, ptr, %struct.ImVector.28, %struct.ImVector.30, %struct.ImGuiTypingSelectState, %struct.ImGuiPlatformImeData, %struct.ImGuiPlatformImeData, i8, float, %struct.ImGuiTextBuffer, %struct.ImVector.31, %struct.ImChunkStream, %struct.ImChunkStream.32, %struct.ImVector.33, i32, [10 x ptr], i8, i32, ptr, ptr, %struct.ImGuiTextBuffer, ptr, ptr, float, i8, i32, i32, i32, ptr, ptr, %struct.ImVec2, i8, i32, %struct.ImGuiErrorRecoveryState, ptr, i32, i32, %struct.ImGuiTextBuffer, %struct.ImGuiTextIndex, i32, i32, i8, i8, i8, i32, i8, i8, i8, i32, float, %struct.ImVec4, %struct.ImGuiMetricsConfig, %struct.ImGuiIDStackTool, %struct.ImGuiDebugAllocInfo, [60 x float], i32, i32, float, i32, i32, i32, %struct.ImVector.28, [64 x i8] }
%struct.ImGuiPlatformIO = type { ptr, ptr, ptr, ptr, ptr, ptr, ptr, i16, ptr }
%struct.ImDrawListSharedData = type <{ %struct.ImVec2, ptr, ptr, float, float, float, float, float, i32, %struct.ImVec4, %struct.ImVector.0, [48 x %struct.ImVec2], float, [64 x i8], [4 x i8] }>
%struct.ImVector.0 = type { i32, i32, ptr }
%struct.ImVector.1 = type { i32, i32, ptr }
%struct.ImVector.2 = type { i32, i32, ptr }
%struct.ImVector.3 = type { i32, i32, ptr }
%struct.ImGuiStorage = type { %struct.ImVector.4 }
%struct.ImVector.4 = type { i32, i32, ptr }
%struct.ImGuiDeactivatedItemData = type { i32, i32, i8, i8 }
%struct.ImBitArray = type { [5 x i32] }
%struct.ImGuiKeyOwnerData = type <{ i32, i32, i8, i8, [2 x i8] }>
%struct.ImGuiKeyRoutingTable = type { [154 x i16], %struct.ImVector.5, %struct.ImVector.5 }
%struct.ImVector.5 = type { i32, i32, ptr }
%struct.ImGuiNextItemData = type <{ i32, i32, i32, [4 x i8], i64, float, i32, i32, i8, i8, %struct.ImGuiDataTypeStorage, [2 x i8], i32, [4 x i8] }>
%struct.ImGuiLastItemData = type { i32, i32, i32, %struct.ImRect, %struct.ImRect, %struct.ImRect, %struct.ImRect, i32 }
%struct.ImGuiNextWindowData = type { i32, i32, i32, i32, %struct.ImVec2, %struct.ImVec2, %struct.ImVec2, %struct.ImVec2, %struct.ImVec2, i32, i32, i8, %struct.ImRect, ptr, ptr, float, %struct.ImVec2, i32 }
%struct.ImVector.6 = type { i32, i32, ptr }
%struct.ImVector.7 = type { i32, i32, ptr }
%struct.ImVector.8 = type { i32, i32, ptr }
%struct.ImVector.10 = type { i32, i32, ptr }
%struct.ImVector.11 = type { i32, i32, ptr }
%struct.ImVector.12 = type { i32, i32, ptr }
%struct.ImVector.13 = type { i32, i32, ptr }
%struct.ImVector.14 = type { i32, i32, ptr }
%struct.ImVector.9 = type { i32, i32, ptr }
%struct.ImGuiNavItemData = type { ptr, i32, i32, %struct.ImRect, i32, float, float, float, i64 }
%struct.ImGuiPayload = type <{ ptr, i32, i32, i32, i32, [33 x i8], i8, i8, [5 x i8] }>
%struct.ImVector.15 = type { i32, i32, ptr }
%struct.ImVector.16 = type { i32, i32, ptr }
%struct.ImVector.17 = type { i32, i32, ptr }
%struct.ImPool = type { %struct.ImVector.18, %struct.ImGuiStorage, i32, i32 }
%struct.ImVector.18 = type { i32, i32, ptr }
%struct.ImVector.19 = type { i32, i32, ptr }
%struct.ImVector.20 = type { i32, i32, ptr }
%struct.ImPool.21 = type { %struct.ImVector.22, %struct.ImGuiStorage, i32, i32 }
%struct.ImVector.22 = type { i32, i32, ptr }
%struct.ImVector.23 = type { i32, i32, ptr }
%struct.ImVector.24 = type { i32, i32, ptr }
%struct.ImGuiBoxSelectState = type <{ i32, i8, i8, i8, i8, i8, i16, i8, %struct.ImVec2, %struct.ImVec2, %struct.ImVec2, [4 x i8], ptr, i8, [3 x i8], %struct.ImRect, %struct.ImRect, %struct.ImRect, [4 x i8] }>
%struct.ImVector.25 = type { i32, i32, ptr }
%struct.ImPool.26 = type { %struct.ImVector.27, %struct.ImGuiStorage, i32, i32 }
%struct.ImVector.27 = type { i32, i32, ptr }
%struct.ImGuiInputTextState = type <{ ptr, ptr, i32, i32, i32, [4 x i8], ptr, %struct.ImVector.28, %struct.ImVector.28, %struct.ImVector.28, i32, %struct.ImVec2, float, i8, i8, i8, i8, i32, i32, [4 x i8] }>
%struct.ImGuiInputTextDeactivatedState = type { i32, %struct.ImVector.28 }
%struct.ImFont = type <{ %struct.ImVector.19, float, float, %struct.ImVector, %struct.ImVector.29, ptr, ptr, ptr, i16, i16, i16, i16, float, float, float, float, float, i32, i8, [1 x i8], [6 x i8] }>
%struct.ImVector.29 = type { i32, i32, ptr }
%struct.ImGuiDataTypeStorage = type { [8 x i8] }
%struct.ImGuiComboPreviewData = type { %struct.ImRect, %struct.ImVec2, %struct.ImVec2, %struct.ImVec2, float, i32 }
%struct.ImRect = type { %struct.ImVec2, %struct.ImVec2 }
%struct.ImVector.30 = type { i32, i32, ptr }
%struct.ImGuiTypingSelectState = type <{ %struct.ImGuiTypingSelectRequest, [64 x i8], i32, i32, float, i8, [3 x i8] }>
%struct.ImGuiTypingSelectRequest = type { i32, i32, ptr, i8, i8, i8 }
%struct.ImGuiPlatformImeData = type { i8, %struct.ImVec2, float }
%struct.ImVector.31 = type { i32, i32, ptr }
%struct.ImChunkStream = type { %struct.ImVector.28 }
%struct.ImChunkStream.32 = type { %struct.ImVector.28 }
%struct.ImVector.33 = type { i32, i32, ptr }
%struct.ImGuiErrorRecoveryState = type { i16, i16, i16, i16, i16, i16, i16, i16, i16, i16, i16 }
%struct.ImGuiTextBuffer = type { %struct.ImVector.28 }
%struct.ImGuiTextIndex = type <{ %struct.ImVector.10, i32, [4 x i8] }>
%struct.ImGuiMetricsConfig = type { i8, i8, i8, i8, i8, i8, i8, i8, i8, i32, i32, i32, i32 }
%struct.ImGuiIDStackTool = type { i32, i32, i32, %struct.ImVector.34, i8, float }
%struct.ImVector.34 = type { i32, i32, ptr }
%struct.ImGuiDebugAllocInfo = type { i32, i32, i16, [6 x %struct.ImGuiDebugAllocEntry] }
%struct.ImGuiDebugAllocEntry = type { i32, i16, i16 }
%struct.ImVector.28 = type { i32, i32, ptr }
%struct.ImGuiStoragePair = type { i32, %union.anon.35 }
%union.anon.35 = type { ptr }

@GImGui = global ptr null, align 8

; Function Attrs: mustprogress nounwind uwtable
define noundef ptr @_Z12ImLowerBoundP16ImGuiStoragePairS0_j(ptr noundef %0, ptr noundef %1, i32 noundef %2) #1 {
  %4 = alloca ptr, align 8
  %5 = alloca ptr, align 8
  %6 = alloca i32, align 4
  %7 = alloca ptr, align 8
  %8 = alloca i64, align 8
  %9 = alloca i64, align 8
  %10 = alloca ptr, align 8
  store ptr %0, ptr %4, align 8, !tbaa !330
  store ptr %1, ptr %5, align 8, !tbaa !330
  store i32 %2, ptr %6, align 4, !tbaa !125
  call void @llvm.lifetime.start.p0(i64 8, ptr %7) #16
  %11 = load ptr, ptr %4, align 8, !tbaa !330
  store ptr %11, ptr %7, align 8, !tbaa !330
  call void @llvm.lifetime.start.p0(i64 8, ptr %8) #16
  %12 = load ptr, ptr %5, align 8, !tbaa !330
  %13 = load ptr, ptr %7, align 8, !tbaa !330
  %14 = ptrtoint ptr %12 to i64
  %15 = ptrtoint ptr %13 to i64
  %16 = sub i64 %14, %15
  %17 = sdiv exact i64 %16, 16
  store i64 %17, ptr %8, align 8, !tbaa !297
  br label %18

18:                                               ; preds = %42, %3
  %19 = load i64, ptr %8, align 8, !tbaa !297
  %20 = icmp ugt i64 %19, 0
  br i1 %20, label %22, label %21

21:                                               ; preds = %18
  call void @llvm.lifetime.end.p0(i64 8, ptr %8) #16
  br label %43

22:                                               ; preds = %18
  call void @llvm.lifetime.start.p0(i64 8, ptr %9) #16
  %23 = load i64, ptr %8, align 8, !tbaa !297
  %24 = lshr i64 %23, 1
  store i64 %24, ptr %9, align 8, !tbaa !297
  call void @llvm.lifetime.start.p0(i64 8, ptr %10) #16
  %25 = load ptr, ptr %7, align 8, !tbaa !330
  %26 = load i64, ptr %9, align 8, !tbaa !297
  %27 = getelementptr inbounds nuw %struct.ImGuiStoragePair, ptr %25, i64 %26
  store ptr %27, ptr %10, align 8, !tbaa !330
  %28 = load ptr, ptr %10, align 8, !tbaa !330
  %29 = getelementptr inbounds nuw %struct.ImGuiStoragePair, ptr %28, i32 0, i32 0
  %30 = load i32, ptr %29, align 8, !tbaa !331
  %31 = load i32, ptr %6, align 4, !tbaa !125
  %32 = icmp ult i32 %30, %31
  br i1 %32, label %33, label %40

33:                                               ; preds = %22
  %34 = load ptr, ptr %10, align 8, !tbaa !330
  %35 = getelementptr inbounds nuw %struct.ImGuiStoragePair, ptr %34, i32 1
  store ptr %35, ptr %10, align 8, !tbaa !330
  store ptr %35, ptr %7, align 8, !tbaa !330
  %36 = load i64, ptr %9, align 8, !tbaa !297
  %37 = add i64 %36, 1
  %38 = load i64, ptr %8, align 8, !tbaa !297
  %39 = sub i64 %38, %37
  store i64 %39, ptr %8, align 8, !tbaa !297
  br label %42

40:                                               ; preds = %22
  %41 = load i64, ptr %9, align 8, !tbaa !297
  store i64 %41, ptr %8, align 8, !tbaa !297
  br label %42

42:                                               ; preds = %40, %33
  call void @llvm.lifetime.end.p0(i64 8, ptr %10) #16
  call void @llvm.lifetime.end.p0(i64 8, ptr %9) #16
  br label %18, !llvm.loop !333

43:                                               ; preds = %21
  %44 = load ptr, ptr %7, align 8, !tbaa !330
  call void @llvm.lifetime.end.p0(i64 8, ptr %7) #16
  ret ptr %44
}

; Function Attrs: mustprogress nounwind uwtable
define noundef ptr @_ZNK12ImGuiStorage10GetVoidPtrEj(ptr noundef nonnull align 8 dereferenceable(16) %0, i32 noundef %1) #1 align 2 {
  %3 = alloca ptr, align 8
  %4 = alloca ptr, align 8
  %5 = alloca i32, align 4
  %6 = alloca ptr, align 8
  %7 = alloca i32, align 4
  store ptr %0, ptr %4, align 8, !tbaa !334
  store i32 %1, ptr %5, align 4, !tbaa !125
  %8 = load ptr, ptr %4, align 8
  call void @llvm.lifetime.start.p0(i64 8, ptr %6) #16
  %9 = getelementptr inbounds nuw %struct.ImGuiStorage, ptr %8, i32 0, i32 0
  %10 = getelementptr inbounds nuw %struct.ImVector.4, ptr %9, i32 0, i32 2
  %11 = load ptr, ptr %10, align 8, !tbaa !336
  %12 = getelementptr inbounds nuw %struct.ImGuiStorage, ptr %8, i32 0, i32 0
  %13 = getelementptr inbounds nuw %struct.ImVector.4, ptr %12, i32 0, i32 2
  %14 = load ptr, ptr %13, align 8, !tbaa !336
  %15 = getelementptr inbounds nuw %struct.ImGuiStorage, ptr %8, i32 0, i32 0
  %16 = getelementptr inbounds nuw %struct.ImVector.4, ptr %15, i32 0, i32 0
  %17 = load i32, ptr %16, align 8, !tbaa !337
  %18 = sext i32 %17 to i64
  %19 = getelementptr inbounds %struct.ImGuiStoragePair, ptr %14, i64 %18
  %20 = load i32, ptr %5, align 4, !tbaa !125
  %21 = call noundef ptr @_Z12ImLowerBoundP16ImGuiStoragePairS0_j(ptr noundef %11, ptr noundef %19, i32 noundef %20)
  store ptr %21, ptr %6, align 8, !tbaa !330
  %22 = load ptr, ptr %6, align 8, !tbaa !330
  %23 = getelementptr inbounds nuw %struct.ImGuiStorage, ptr %8, i32 0, i32 0
  %24 = getelementptr inbounds nuw %struct.ImVector.4, ptr %23, i32 0, i32 2
  %25 = load ptr, ptr %24, align 8, !tbaa !336
  %26 = getelementptr inbounds nuw %struct.ImGuiStorage, ptr %8, i32 0, i32 0
  %27 = getelementptr inbounds nuw %struct.ImVector.4, ptr %26, i32 0, i32 0
  %28 = load i32, ptr %27, align 8, !tbaa !337
  %29 = sext i32 %28 to i64
  %30 = getelementptr inbounds %struct.ImGuiStoragePair, ptr %25, i64 %29
  %31 = icmp eq ptr %22, %30
  br i1 %31, label %38, label %32

32:                                               ; preds = %2
  %33 = load ptr, ptr %6, align 8, !tbaa !330
  %34 = getelementptr inbounds nuw %struct.ImGuiStoragePair, ptr %33, i32 0, i32 0
  %35 = load i32, ptr %34, align 8, !tbaa !331
  %36 = load i32, ptr %5, align 4, !tbaa !125
  %37 = icmp ne i32 %35, %36
  br i1 %37, label %38, label %39

38:                                               ; preds = %32, %2
  store ptr null, ptr %3, align 8
  store i32 1, ptr %7, align 4
  br label %43

39:                                               ; preds = %32
  %40 = load ptr, ptr %6, align 8, !tbaa !330
  %41 = getelementptr inbounds nuw %struct.ImGuiStoragePair, ptr %40, i32 0, i32 1
  %42 = load ptr, ptr %41, align 8, !tbaa !252
  store ptr %42, ptr %3, align 8
  store i32 1, ptr %7, align 4
  br label %43

43:                                               ; preds = %39, %38
  call void @llvm.lifetime.end.p0(i64 8, ptr %6) #16
  %44 = load ptr, ptr %3, align 8
  ret ptr %44
}

; Function Attrs: mustprogress nounwind uwtable
define noundef ptr @_ZN5ImGui14FindWindowByIDEj(i32 noundef %0) #1 {
  %2 = alloca i32, align 4
  %3 = alloca ptr, align 8
  store i32 %0, ptr %2, align 4, !tbaa !125
  call void @llvm.lifetime.start.p0(i64 8, ptr %3) #16
  %4 = load ptr, ptr @GImGui, align 8, !tbaa !139
  store ptr %4, ptr %3, align 8, !tbaa !139
  %5 = load ptr, ptr %3, align 8, !tbaa !139
  %6 = getelementptr inbounds nuw %struct.ImGuiContext, ptr %5, i32 0, i32 30
  %7 = load i32, ptr %2, align 4, !tbaa !125
  %8 = call noundef ptr @_ZNK12ImGuiStorage10GetVoidPtrEj(ptr noundef nonnull align 8 dereferenceable(16) %6, i32 noundef %7)
  call void @llvm.lifetime.end.p0(i64 8, ptr %3) #16
  ret ptr %8
}